; Function Attrs: nounwind uwtable
define internal range(i32 -1, 57) i32 @prolog0(ptr noundef writeonly captures(none) %0, i32 noundef %1, ptr noundef %2, ptr noundef %3, ptr noundef %4) #1 {
  switch i32 %1, label %19 [
    i32 15, label %.sink.split
    i32 12, label %6
    i32 11, label %7
    i32 13, label %8
    i32 14, label %20
    i32 16, label %9
    i32 29, label %18
  ]

6:                                                ; preds = %5
  br label %.sink.split

7:                                                ; preds = %5
  br label %.sink.split

8:                                                ; preds = %5
  br label %.sink.split

9:                                                ; preds = %5
  %10 = getelementptr inbounds nuw i8, ptr %4, i64 40
  %11 = load ptr, ptr %10, align 8, !tbaa !10
  %12 = getelementptr inbounds nuw i8, ptr %4, i64 120
  %13 = load i32, ptr %12, align 8, !tbaa !12
  %14 = shl nsw i32 %13, 1
  %15 = sext i32 %14 to i64
  %16 = getelementptr inbounds i8, ptr %2, i64 %15
  %17 = tail call i32 %11(ptr noundef %4, ptr noundef %16, ptr noundef %3, ptr noundef nonnull @KW_DOCTYPE) #5
  %.not = icmp eq i32 %17, 0
  br i1 %.not, label %19, label %.sink.split

18:                                               ; preds = %5
  br label %.sink.split

19:                                               ; preds = %9, %5
  br label %.sink.split

.sink.split:                                      ; preds = %9, %5, %6, %7, %8, %18, %19
  %error.sink = phi ptr [ @error, %19 ], [ @error, %18 ], [ @prolog1, %8 ], [ @prolog1, %7 ], [ @prolog1, %6 ], [ @prolog1, %5 ], [ @doctype0, %9 ]
  %.0.ph = phi i32 [ -1, %19 ], [ 2, %18 ], [ 56, %8 ], [ 55, %7 ], [ 1, %6 ], [ 0, %5 ], [ 3, %9 ]
  store ptr %error.sink, ptr %0, align 8, !tbaa !4
  br label %20

20:                                               ; preds = %.sink.split, %5
  %.0 = phi i32 [ 0, %5 ], [ %.0.ph, %.sink.split ]
  ret i32 %.0
}